target datalayout = "e-m:e-p270:32:32-p271:32:32-p272:64:64-i64:64-i128:128-f80:128-n8:16:32:64-S128"
target triple = "x86_64-pc-linux-gnu"

%struct._zval_struct = type { %union._zend_value, %union.anon.0, %union.anon.3 }
%union._zend_value = type { i64 }
%union.anon.0 = type { i32 }
%union.anon.3 = type { i32 }
%struct._php_stream = type { ptr, ptr, %struct._php_stream_filter_chain, %struct._php_stream_filter_chain, ptr, ptr, %struct._zval_struct, i16, [16 x i8], i32, ptr, ptr, ptr, ptr, i64, ptr, i64, i64, i64, i64, ptr }
%struct._php_stream_filter_chain = type { ptr, ptr, ptr }

@.str.1 = private unnamed_addr constant [4 x i8] c"wa+\00", align 1
@.str.37 = private unnamed_addr constant [23 x i8] c"FTP server error %d:%s\00", align 1
@.str.38 = private unnamed_addr constant [7 x i8] c"QUIT\0D\0A\00", align 1

; Function Attrs: inlinehint nounwind uwtable
define internal i32 @get_ftp_result(ptr noundef %0, ptr noundef %1, i64 noundef %2) #4 {
  %4 = alloca ptr, align 8
  %5 = alloca ptr, align 8
  %6 = alloca i64, align 8
  store ptr %0, ptr %4, align 8, !tbaa !17
  store ptr %1, ptr %5, align 8, !tbaa !9
  store i64 %2, ptr %6, align 8, !tbaa !21
  %7 = load ptr, ptr %5, align 8, !tbaa !9
  %8 = getelementptr inbounds i8, ptr %7, i64 0
  store i8 0, ptr %8, align 1, !tbaa !25
  br label %9

9:                                                ; preds = %66, %3
  %10 = load ptr, ptr %4, align 8, !tbaa !17
  %11 = load ptr, ptr %5, align 8, !tbaa !9
  %12 = load i64, ptr %6, align 8, !tbaa !21
  %13 = sub i64 %12, 1
  %14 = call ptr @_php_stream_get_line(ptr noundef %10, ptr noundef %11, i64 noundef %13, ptr noundef null)
  %15 = icmp ne ptr %14, null
  br i1 %15, label %16, label %64

16:                                               ; preds = %9
  %17 = call ptr @__ctype_b_loc() #13
  %18 = load ptr, ptr %17, align 8, !tbaa !64
  %19 = load ptr, ptr %5, align 8, !tbaa !9
  %20 = getelementptr inbounds i8, ptr %19, i64 0
  %21 = load i8, ptr %20, align 1, !tbaa !25
  %22 = sext i8 %21 to i32
  %23 = sext i32 %22 to i64
  %24 = getelementptr inbounds i16, ptr %18, i64 %23
  %25 = load i16, ptr %24, align 2, !tbaa !40
  %26 = zext i16 %25 to i32
  %27 = and i32 %26, 2048
  %28 = icmp ne i32 %27, 0
  br i1 %28, label %29, label %61

29:                                               ; preds = %16
  %30 = call ptr @__ctype_b_loc() #13
  %31 = load ptr, ptr %30, align 8, !tbaa !64
  %32 = load ptr, ptr %5, align 8, !tbaa !9
  %33 = getelementptr inbounds i8, ptr %32, i64 1
  %34 = load i8, ptr %33, align 1, !tbaa !25
  %35 = sext i8 %34 to i32
  %36 = sext i32 %35 to i64
  %37 = getelementptr inbounds i16, ptr %31, i64 %36
  %38 = load i16, ptr %37, align 2, !tbaa !40
  %39 = zext i16 %38 to i32
  %40 = and i32 %39, 2048
  %41 = icmp ne i32 %40, 0
  br i1 %41, label %42, label %61

42:                                               ; preds = %29
  %43 = call ptr @__ctype_b_loc() #13
  %44 = load ptr, ptr %43, align 8, !tbaa !64
  %45 = load ptr, ptr %5, align 8, !tbaa !9
  %46 = getelementptr inbounds i8, ptr %45, i64 2
  %47 = load i8, ptr %46, align 1, !tbaa !25
  %48 = sext i8 %47 to i32
  %49 = sext i32 %48 to i64
  %50 = getelementptr inbounds i16, ptr %44, i64 %49
  %51 = load i16, ptr %50, align 2, !tbaa !40
  %52 = zext i16 %51 to i32
  %53 = and i32 %52, 2048
  %54 = icmp ne i32 %53, 0
  br i1 %54, label %55, label %61

55:                                               ; preds = %42
  %56 = load ptr, ptr %5, align 8, !tbaa !9
  %57 = getelementptr inbounds i8, ptr %56, i64 3
  %58 = load i8, ptr %57, align 1, !tbaa !25
  %59 = sext i8 %58 to i32
  %60 = icmp eq i32 %59, 32
  br label %61

61:                                               ; preds = %55, %42, %29, %16
  %62 = phi i1 [ false, %42 ], [ false, %29 ], [ false, %16 ], [ %60, %55 ]
  %63 = xor i1 %62, true
  br label %64

64:                                               ; preds = %61, %9
  %65 = phi i1 [ false, %9 ], [ %63, %61 ]
  br i1 %65, label %66, label %67

66:                                               ; preds = %64
  br label %9

67:                                               ; preds = %64
  %68 = load ptr, ptr %5, align 8, !tbaa !9
  %69 = call i64 @strtol(ptr noundef %68, ptr noundef null, i32 noundef 10) #11
  %70 = trunc i64 %69 to i32
  ret i32 %70
}

; Function Attrs: nounwind uwtable
define internal i32 @php_stream_ftp_stream_close(ptr noundef %0, ptr noundef %1) #0 {
  %3 = alloca ptr, align 8
  %4 = alloca ptr, align 8
  %5 = alloca ptr, align 8
  %6 = alloca i32, align 4
  %7 = alloca [512 x i8], align 16
  %8 = alloca i32, align 4
  store ptr %0, ptr %3, align 8, !tbaa !4
  store ptr %1, ptr %4, align 8, !tbaa !17
  call void @llvm.lifetime.start.p0(i64 8, ptr %5) #11
  %9 = load ptr, ptr %4, align 8, !tbaa !17
  %10 = getelementptr inbounds nuw %struct._php_stream, ptr %9, i32 0, i32 5
  %11 = load ptr, ptr %10, align 8, !tbaa !46
  store ptr %11, ptr %5, align 8, !tbaa !17
  call void @llvm.lifetime.start.p0(i64 4, ptr %6) #11
  store i32 0, ptr %6, align 4, !tbaa !11
  %12 = load ptr, ptr %5, align 8, !tbaa !17
  %13 = icmp ne ptr %12, null
  br i1 %13, label %14, label %40

14:                                               ; preds = %2
  %15 = load ptr, ptr %4, align 8, !tbaa !17
  %16 = getelementptr inbounds nuw %struct._php_stream, ptr %15, i32 0, i32 8
  %17 = getelementptr inbounds [16 x i8], ptr %16, i64 0, i64 0
  %18 = call ptr @strpbrk(ptr noundef %17, ptr noundef @.str.1) #12
  %19 = icmp ne ptr %18, null
  br i1 %19, label %20, label %33

20:                                               ; preds = %14
  call void @llvm.lifetime.start.p0(i64 512, ptr %7) #11
  call void @llvm.lifetime.start.p0(i64 4, ptr %8) #11
  %21 = load ptr, ptr %5, align 8, !tbaa !17
  %22 = getelementptr inbounds [512 x i8], ptr %7, i64 0, i64 0
  %23 = call i32 @get_ftp_result(ptr noundef %21, ptr noundef %22, i64 noundef 512)
  store i32 %23, ptr %8, align 4, !tbaa !11
  %24 = load i32, ptr %8, align 4, !tbaa !11
  %25 = icmp ne i32 %24, 226
  br i1 %25, label %26, label %32

26:                                               ; preds = %20
  %27 = load i32, ptr %8, align 4, !tbaa !11
  %28 = icmp ne i32 %27, 250
  br i1 %28, label %29, label %32

29:                                               ; preds = %26
  %30 = load i32, ptr %8, align 4, !tbaa !11
  %31 = getelementptr inbounds [512 x i8], ptr %7, i64 0, i64 0
  call void (ptr, i32, ptr, ...) @php_error_docref(ptr noundef null, i32 noundef 2, ptr noundef @.str.37, i32 noundef %30, ptr noundef %31)
  store i32 -1, ptr %6, align 4, !tbaa !11
  br label %32

32:                                               ; preds = %29, %26, %20
  call void @llvm.lifetime.end.p0(i64 4, ptr %8) #11
  call void @llvm.lifetime.end.p0(i64 512, ptr %7) #11
  br label %33

33:                                               ; preds = %32, %14
  %34 = load ptr, ptr %5, align 8, !tbaa !17
  %35 = call i64 @_php_stream_write(ptr noundef %34, ptr noundef @.str.38, i64 noundef 6)
  %36 = load ptr, ptr %5, align 8, !tbaa !17
  %37 = call i32 @_php_stream_free(ptr noundef %36, i32 noundef 3)
  %38 = load ptr, ptr %4, align 8, !tbaa !17
  %39 = getelementptr inbounds nuw %struct._php_stream, ptr %38, i32 0, i32 5
  store ptr null, ptr %39, align 8, !tbaa !46
  br label %40

40:                                               ; preds = %33, %2
  %41 = load i32, ptr %6, align 4, !tbaa !11
  call void @llvm.lifetime.end.p0(i64 4, ptr %6) #11
  call void @llvm.lifetime.end.p0(i64 8, ptr %5) #11
  ret i32 %41
}