; Function Attrs: nounwind uwtable
define internal range(i32 -1, 1) i32 @php_stream_ftp_stream_close(ptr readnone captures(none) %0, ptr noundef %1) #0 {
  %3 = alloca [512 x i8], align 16
  %4 = getelementptr inbounds nuw i8, ptr %1, i64 72
  %5 = load ptr, ptr %4, align 8, !tbaa !35
  %.not = icmp eq ptr %5, null
  br i1 %.not, label %43, label %6

6:                                                ; preds = %2
  %7 = getelementptr inbounds nuw i8, ptr %1, i64 98
  %8 = tail call ptr @strpbrk(ptr noundef nonnull %7, ptr noundef nonnull @.str.1) #16
  %.not13 = icmp eq ptr %8, null
  br i1 %.not13, label %40, label %9

9:                                                ; preds = %6
  call void @llvm.lifetime.start.p0(i64 512, ptr nonnull %3) #15
  store i8 0, ptr %3, align 16, !tbaa !17
  %10 = getelementptr inbounds nuw i8, ptr %3, i64 3
  %11 = call ptr @_php_stream_get_line(ptr noundef nonnull %5, ptr noundef nonnull %3, i64 noundef 511, ptr noundef null) #15
  %.not14.i = icmp eq ptr %11, null
  br i1 %.not14.i, label %get_ftp_result.exit, label %.lr.ph.i

.lr.ph.i:                                         ; preds = %9
  %12 = tail call ptr @__ctype_b_loc() #17
  %13 = getelementptr inbounds nuw i8, ptr %3, i64 1
  %14 = getelementptr inbounds nuw i8, ptr %3, i64 2
  br label %15

15:                                               ; preds = %.backedge.i, %.lr.ph.i
  %16 = load ptr, ptr %12, align 8, !tbaa !18
  %17 = load i8, ptr %3, align 16, !tbaa !17
  %18 = sext i8 %17 to i64
  %19 = getelementptr inbounds i16, ptr %16, i64 %18
  %20 = load i16, ptr %19, align 2, !tbaa !20
  %21 = and i16 %20, 2048
  %.not8.i = icmp eq i16 %21, 0
  br i1 %.not8.i, label %.backedge.i, label %22

22:                                               ; preds = %15
  %23 = load i8, ptr %13, align 1, !tbaa !17
  %24 = sext i8 %23 to i64
  %25 = getelementptr inbounds i16, ptr %16, i64 %24
  %26 = load i16, ptr %25, align 2, !tbaa !20
  %27 = and i16 %26, 2048
  %.not9.i = icmp eq i16 %27, 0
  br i1 %.not9.i, label %.backedge.i, label %28

28:                                               ; preds = %22
  %29 = load i8, ptr %14, align 2, !tbaa !17
  %30 = sext i8 %29 to i64
  %31 = getelementptr inbounds i16, ptr %16, i64 %30
  %32 = load i16, ptr %31, align 2, !tbaa !20
  %33 = and i16 %32, 2048
  %.not10.i = icmp ne i16 %33, 0
  %34 = load i8, ptr %10, align 1
  %.not13.i = icmp eq i8 %34, 32
  %or.cond = select i1 %.not10.i, i1 %.not13.i, i1 false
  br i1 %or.cond, label %get_ftp_result.exit, label %.backedge.i

.backedge.i:                                      ; preds = %28, %22, %15
  %35 = call ptr @_php_stream_get_line(ptr noundef nonnull %5, ptr noundef nonnull %3, i64 noundef 511, ptr noundef null) #15
  %.not.i = icmp eq ptr %35, null
  br i1 %.not.i, label %get_ftp_result.exit, label %15

get_ftp_result.exit:                              ; preds = %28, %.backedge.i, %9
  %36 = call i64 @strtol(ptr noundef nonnull captures(none) %3, ptr noundef null, i32 noundef 10) #15
  %37 = trunc i64 %36 to i32
  switch i32 %37, label %38 [
    i32 250, label %39
    i32 226, label %39
  ]

38:                                               ; preds = %get_ftp_result.exit
  call void (ptr, i32, ptr, ...) @php_error_docref(ptr noundef null, i32 noundef 2, ptr noundef nonnull @.str.37, i32 noundef %37, ptr noundef nonnull %3) #15
  br label %39

39:                                               ; preds = %get_ftp_result.exit, %get_ftp_result.exit, %38
  %.2 = phi i32 [ -1, %38 ], [ 0, %get_ftp_result.exit ], [ 0, %get_ftp_result.exit ]
  call void @llvm.lifetime.end.p0(i64 512, ptr nonnull %3) #15
  br label %40

40:                                               ; preds = %39, %6
  %.1 = phi i32 [ %.2, %39 ], [ 0, %6 ]
  %41 = call i64 @_php_stream_write(ptr noundef nonnull %5, ptr noundef nonnull @.str.38, i64 noundef 6) #15
  %42 = call i32 @_php_stream_free(ptr noundef nonnull %5, i32 noundef 3) #15
  store ptr null, ptr %4, align 8, !tbaa !35
  br label %43

43:                                               ; preds = %40, %2
  %.0 = phi i32 [ %.1, %40 ], [ 0, %2 ]
  ret i32 %.0
}